target datalayout = "e-m:e-p270:32:32-p271:32:32-p272:64:64-i64:64-i128:128-f80:128-n8:16:32:64-S128"
target triple = "x86_64-pc-linux-gnu"

%struct.fake_rsa_keydata = type { i32, i32 }

@.str.9 = private unnamed_addr constant [31 x i8] c"../openssl/test/fake_rsaprov.c\00", align 1
@.str.19 = private unnamed_addr constant [7 x i8] c"sigctx\00", align 1
@.str.20 = private unnamed_addr constant [8 x i8] c"keydata\00", align 1
@.str.21 = private unnamed_addr constant [16 x i8] c"keydata->status\00", align 1
@.str.22 = private unnamed_addr constant [2 x i8] c"0\00", align 1

; Function Attrs: nounwind uwtable
define internal i32 @fake_rsa_sig_sign_init(ptr noundef %0, ptr noundef %1, ptr noundef %2) #0 {
  %4 = alloca i32, align 4
  %5 = alloca ptr, align 8
  %6 = alloca ptr, align 8
  %7 = alloca ptr, align 8
  %8 = alloca ptr, align 8
  %9 = alloca ptr, align 8
  %10 = alloca i32, align 4
  store ptr %0, ptr %5, align 8, !tbaa !19
  store ptr %1, ptr %6, align 8, !tbaa !19
  store ptr %2, ptr %7, align 8, !tbaa !24
  call void @llvm.lifetime.start.p0(i64 8, ptr %8) #6
  %11 = load ptr, ptr %5, align 8, !tbaa !19
  store ptr %11, ptr %8, align 8, !tbaa !22
  call void @llvm.lifetime.start.p0(i64 8, ptr %9) #6
  %12 = load ptr, ptr %6, align 8, !tbaa !19
  store ptr %12, ptr %9, align 8, !tbaa !26
  %13 = load ptr, ptr %8, align 8, !tbaa !22
  %14 = call i32 @test_ptr(ptr noundef @.str.9, i32 noundef 320, ptr noundef @.str.19, ptr noundef %13)
  %15 = icmp ne i32 %14, 0
  br i1 %15, label %17, label %16

16:                                               ; preds = %3
  store i32 0, ptr %4, align 4
  store i32 1, ptr %10, align 4
  br label %30

17:                                               ; preds = %3
  %18 = load ptr, ptr %9, align 8, !tbaa !26
  %19 = call i32 @test_ptr(ptr noundef @.str.9, i32 noundef 324, ptr noundef @.str.20, ptr noundef %18)
  %20 = icmp ne i32 %19, 0
  br i1 %20, label %21, label %27

21:                                               ; preds = %17
  %22 = load ptr, ptr %9, align 8, !tbaa !26
  %23 = getelementptr inbounds nuw %struct.fake_rsa_keydata, ptr %22, i32 0, i32 1
  %24 = load i32, ptr %23, align 4, !tbaa !28
  %25 = call i32 @test_int_gt(ptr noundef @.str.9, i32 noundef 324, ptr noundef @.str.21, ptr noundef @.str.22, i32 noundef %24, i32 noundef 0)
  %26 = icmp ne i32 %25, 0
  br i1 %26, label %28, label %27

27:                                               ; preds = %21, %17
  store i32 0, ptr %4, align 4
  store i32 1, ptr %10, align 4
  br label %30

28:                                               ; preds = %21
  %29 = load ptr, ptr %8, align 8, !tbaa !22
  store i8 1, ptr %29, align 1, !tbaa !30
  store i32 1, ptr %4, align 4
  store i32 1, ptr %10, align 4
  br label %30

30:                                               ; preds = %28, %27, %16
  call void @llvm.lifetime.end.p0(i64 8, ptr %9) #6
  call void @llvm.lifetime.end.p0(i64 8, ptr %8) #6
  %31 = load i32, ptr %4, align 4
  ret i32 %31
}