; Function Attrs: nounwind uwtable
define internal range(i32 0, 2) i32 @fake_rsa_sig_sign_init(ptr noundef %0, ptr noundef %1, ptr readnone captures(none) %2) #1 {
  %4 = tail call i32 @test_ptr(ptr noundef nonnull @.str.9, i32 noundef 320, ptr noundef nonnull @.str.19, ptr noundef %0) #12
  %.not = icmp eq i32 %4, 0
  br i1 %.not, label %12, label %5

5:                                                ; preds = %3
  %6 = tail call i32 @test_ptr(ptr noundef nonnull @.str.9, i32 noundef 324, ptr noundef nonnull @.str.20, ptr noundef %1) #12
  %.not6 = icmp eq i32 %6, 0
  br i1 %.not6, label %12, label %7

7:                                                ; preds = %5
  %8 = getelementptr inbounds nuw i8, ptr %1, i64 4
  %9 = load i32, ptr %8, align 4, !tbaa !12
  %10 = tail call i32 @test_int_gt(ptr noundef nonnull @.str.9, i32 noundef 324, ptr noundef nonnull @.str.21, ptr noundef nonnull @.str.22, i32 noundef %9, i32 noundef 0) #12
  %.not7 = icmp eq i32 %10, 0
  br i1 %.not7, label %12, label %11

11:                                               ; preds = %7
  store i8 1, ptr %0, align 1, !tbaa !14
  br label %12

12:                                               ; preds = %5, %7, %3, %11
  %.0 = phi i32 [ 1, %11 ], [ 0, %3 ], [ 0, %7 ], [ 0, %5 ]
  ret i32 %.0
}